target datalayout = "e-m:e-p270:32:32-p271:32:32-p272:64:64-i64:64-i128:128-f80:128-n8:16:32:64-S128"
target triple = "x86_64-pc-linux-gnu"

%struct.RestorationUnitInfo = type { i32, [12 x i8], %struct.WienerInfo, %struct.SgrprojInfo, [4 x i8] }
%struct.WienerInfo = type { [8 x i16], [8 x i16] }
%struct.SgrprojInfo = type { i32, [2 x i32] }

; Function Attrs: nounwind uwtable
define internal void @sgrproj_filter_stripe(ptr noundef %0, i32 noundef %1, i32 noundef %2, i32 noundef %3, ptr noundef %4, i32 noundef %5, ptr noundef %6, i32 noundef %7, ptr noundef %8, i32 noundef %9) #0 {
  %11 = alloca ptr, align 8
  %12 = alloca i32, align 4
  %13 = alloca i32, align 4
  %14 = alloca i32, align 4
  %15 = alloca ptr, align 8
  %16 = alloca i32, align 4
  %17 = alloca ptr, align 8
  %18 = alloca i32, align 4
  %19 = alloca ptr, align 8
  %20 = alloca i32, align 4
  %21 = alloca i32, align 4
  %22 = alloca i32, align 4
  store ptr %0, ptr %11, align 8
  store i32 %1, ptr %12, align 4
  store i32 %2, ptr %13, align 4
  store i32 %3, ptr %14, align 4
  store ptr %4, ptr %15, align 8
  store i32 %5, ptr %16, align 4
  store ptr %6, ptr %17, align 8
  store i32 %7, ptr %18, align 4
  store ptr %8, ptr %19, align 8
  store i32 %9, ptr %20, align 4
  store i32 0, ptr %21, align 4
  br label %23

23:                                               ; preds = %63, %10
  %24 = load i32, ptr %21, align 4
  %25 = load i32, ptr %12, align 4
  %26 = icmp slt i32 %24, %25
  br i1 %26, label %27, label %67

27:                                               ; preds = %23
  %28 = load i32, ptr %14, align 4
  %29 = load i32, ptr %12, align 4
  %30 = load i32, ptr %21, align 4
  %31 = sub nsw i32 %29, %30
  %32 = icmp slt i32 %28, %31
  br i1 %32, label %33, label %35

33:                                               ; preds = %27
  %34 = load i32, ptr %14, align 4
  br label %39

35:                                               ; preds = %27
  %36 = load i32, ptr %12, align 4
  %37 = load i32, ptr %21, align 4
  %38 = sub nsw i32 %36, %37
  br label %39

39:                                               ; preds = %35, %33
  %40 = phi i32 [ %34, %33 ], [ %38, %35 ]
  store i32 %40, ptr %22, align 4
  %41 = load ptr, ptr %15, align 8
  %42 = load i32, ptr %21, align 4
  %43 = sext i32 %42 to i64
  %44 = getelementptr inbounds i8, ptr %41, i64 %43
  %45 = load i32, ptr %22, align 4
  %46 = load i32, ptr %13, align 4
  %47 = load i32, ptr %16, align 4
  %48 = load ptr, ptr %11, align 8
  %49 = getelementptr inbounds nuw %struct.RestorationUnitInfo, ptr %48, i32 0, i32 3
  %50 = getelementptr inbounds nuw %struct.SgrprojInfo, ptr %49, i32 0, i32 0
  %51 = load i32, ptr %50, align 16
  %52 = load ptr, ptr %11, align 8
  %53 = getelementptr inbounds nuw %struct.RestorationUnitInfo, ptr %52, i32 0, i32 3
  %54 = getelementptr inbounds nuw %struct.SgrprojInfo, ptr %53, i32 0, i32 1
  %55 = getelementptr inbounds [2 x i32], ptr %54, i64 0, i64 0
  %56 = load ptr, ptr %17, align 8
  %57 = load i32, ptr %21, align 4
  %58 = sext i32 %57 to i64
  %59 = getelementptr inbounds i8, ptr %56, i64 %58
  %60 = load i32, ptr %18, align 4
  %61 = load ptr, ptr %19, align 8
  %62 = load i32, ptr %20, align 4
  call void @av1_apply_selfguided_restoration_c(ptr noundef %44, i32 noundef %45, i32 noundef %46, i32 noundef %47, i32 noundef %51, ptr noundef %55, ptr noundef %59, i32 noundef %60, ptr noundef %61, i32 noundef %62, i32 noundef 0)
  br label %63

63:                                               ; preds = %39
  %64 = load i32, ptr %14, align 4
  %65 = load i32, ptr %21, align 4
  %66 = add nsw i32 %65, %64
  store i32 %66, ptr %21, align 4
  br label %23, !llvm.loop !52

67:                                               ; preds = %23
  ret void
}